Certificate:
    Data:
        Version: 3 (0x2)
        Serial Number:
            0d:70:eb:53:f8:65:33:38:b6:27:a6:70:d2:27:01:a8
        Signature Algorithm: sha256WithRSAEncryption
        Issuer: CN=ovpn-fi-1.vpnv.cc
        Validity
            Not Before: Jun 17 04:25:25 2025 GMT
            Not After : Sep 20 04:25:25 2027 GMT
        Subject: CN=ovpn-fi-1.vpnv.cc
        Subject Public Key Info:
            Public Key Algorithm: rsaEncryption
                Public-Key: (2048 bit)
                Modulus:
                    00:af:b8:95:18:5e:a1:50:de:68:05:ad:fb:b5:ad:
                    fd:e4:21:72:70:24:5b:a4:4c:cd:f6:ef:78:84:40:
                    70:76:c7:a0:f5:54:72:40:4a:a5:ed:7e:b8:b8:ff:
                    ff:e5:67:82:38:c2:3a:17:c9:34:41:87:7d:9e:77:
                    47:f1:ea:26:bb:05:ec:77:1a:f9:5b:f2:56:29:66:
                    7d:01:e7:5d:88:41:27:86:9f:f9:04:50:10:01:a8:
                    b4:2b:27:88:45:53:04:3c:7a:2b:b7:a7:67:1b:bb:
                    43:58:b4:61:3b:9d:7a:c9:b8:18:a4:bc:f9:05:60:
                    f4:55:63:e1:36:b0:b9:93:4f:f6:cf:f9:40:f6:4b:
                    0e:c6:5c:1a:a1:06:e4:6e:10:73:3f:77:65:9c:8c:
                    fb:8d:71:7d:5b:8d:f4:f9:64:a0:f2:c0:ae:01:90:
                    2a:fb:78:ff:95:41:20:3f:35:e1:a3:55:b6:f9:10:
                    74:03:da:83:54:10:e9:34:6e:9f:92:e5:60:96:2f:
                    47:f1:41:3e:e0:a4:56:62:3e:90:bd:05:6d:31:ce:
                    8c:1b:4f:af:26:50:5f:94:84:73:64:03:c9:bd:85:
                    f3:30:22:1b:5e:f9:07:b2:5d:0b:1a:b7:21:67:99:
                    17:b3:fe:79:79:e5:30:b2:93:13:e9:ab:bd:03:58:
                    42:19
                Exponent: 65537 (0x10001)
        X509v3 extensions:
            X509v3 Basic Constraints: 
                CA:FALSE
            X509v3 Subject Key Identifier: 
                BC:AE:CE:EF:A6:7D:94:63:2B:2E:CF:68:8A:FD:54:E8:63:F5:2E:E5
            X509v3 Authority Key Identifier: 
                keyid:E6:14:98:EE:B5:A7:86:26:8E:E2:EE:C2:59:E9:83:38:87:C0:16:F6
                DirName:/CN=ovpn-fi-1.vpnv.cc
                serial:11:4B:A4:B8:6F:0F:3D:02:19:E6:39:AD:B3:FB:FA:27:E9:51:98
            X509v3 Extended Key Usage: 
                TLS Web Server Authentication
            X509v3 Key Usage: 
                Digital Signature, Key Encipherment
            X509v3 Subject Alternative Name: 
                DNS:ovpn-fi-1.vpnv.cc
    Signature Algorithm: sha256WithRSAEncryption
    Signature Value:
        84:41:74:c9:d7:84:0a:c9:d4:a5:82:23:e6:ee:8a:2d:9a:63:
        41:e5:72:54:e0:43:94:0e:9c:de:ea:00:ea:88:0e:cf:80:01:
        63:c4:11:71:77:a5:32:29:26:74:b7:81:84:15:8e:57:57:0a:
        8e:e5:08:9b:7e:4c:08:ee:1a:b5:fb:11:0e:61:55:85:e3:4d:
        7b:1a:a4:b1:7e:56:64:4c:81:89:05:44:04:43:6f:77:57:ec:
        0b:f9:7f:4d:a0:4d:8d:d2:39:2d:c8:e7:5e:bb:a3:04:56:09:
        e8:5a:f7:83:d1:1b:a3:f2:a4:97:ae:7c:c5:55:32:f6:3a:5e:
        91:b6:ce:b2:cb:59:d1:74:5c:cb:ca:19:68:61:d2:54:42:7e:
        40:be:cc:4b:1f:c8:0d:09:59:7e:8d:8a:b7:87:81:ee:3d:f2:
        ed:6f:10:35:18:03:97:7c:fd:59:c8:c3:bb:30:c9:42:c3:be:
        aa:bc:f1:aa:41:44:ef:06:77:29:57:2f:7d:b1:fe:c6:03:be:
        24:c3:83:e2:6b:c9:b9:0b:43:06:bc:21:93:e0:cf:44:69:4e:
        96:0a:c1:a3:8f:79:a8:38:f5:b8:9b:78:ee:bc:7c:fd:6d:fe:
        94:b0:d1:5b:61:96:75:02:bd:11:83:f3:d9:c0:bf:c2:fd:e3:
        f6:15:aa:7e
-----BEGIN CERTIFICATE-----
MIIDiDCCAnCgAwIBAgIQDXDrU/hlMzi2J6Zw0icBqDANBgkqhkiG9w0BAQsFADAc
MRowGAYDVQQDDBFvdnBuLWZpLTEudnBudi5jYzAeFw0yNTA2MTcwNDI1MjVaFw0y
NzA5MjAwNDI1MjVaMBwxGjAYBgNVBAMMEW92cG4tZmktMS52cG52LmNjMIIBIjAN
BgkqhkiG9w0BAQEFAAOCAQ8AMIIBCgKCAQEAr7iVGF6hUN5oBa37ta395CFycCRb
pEzN9u94hEBwdseg9VRyQEql7X64uP//5WeCOMI6F8k0QYd9nndH8eomuwXsdxr5
W/JWKWZ9AeddiEEnhp/5BFAQAai0KyeIRVMEPHort6dnG7tDWLRhO516ybgYpLz5
BWD0VWPhNrC5k0/2z/lA9ksOxlwaoQbkbhBzP3dlnIz7jXF9W430+WSg8sCuAZAq
+3j/lUEgPzXho1W2+RB0A9qDVBDpNG6fkuVgli9H8UE+4KRWYj6QvQVtMc6MG0+v
JlBflIRzZAPJvYXzMCIbXvkHsl0LGrchZ5kXs/55eeUwspMT6au9A1hCGQIDAQAB
o4HFMIHCMAkGA1UdEwQCMAAwHQYDVR0OBBYEFLyuzu+mfZRjKy7PaIr9VOhj9S7l
MFYGA1UdIwRPME2AFOYUmO61p4YmjuLuwlnpgziHwBb2oSCkHjAcMRowGAYDVQQD
DBFvdnBuLWZpLTEudnBudi5jY4ITEUukuG8PPQIZ5jmts/v6J+lRmDATBgNVHSUE
DDAKBggrBgEFBQcDATALBgNVHQ8EBAMCBaAwHAYDVR0RBBUwE4IRb3Zwbi1maS0x
LnZwbnYuY2MwDQYJKoZIhvcNAQELBQADggEBAIRBdMnXhArJ1KWCI+buii2aY0Hl
clTgQ5QOnN7qAOqIDs+AAWPEEXF3pTIpJnS3gYQVjldXCo7lCJt+TAjuGrX7EQ5h
VYXjTXsapLF+VmRMgYkFRARDb3dX7Av5f02gTY3SOS3I5167owRWCeha94PRG6Py
pJeufMVVMvY6XpG2zrLLWdF0XMvKGWhh0lRCfkC+zEsfyA0JWX6NireHge498u1v
EDUYA5d8/VnIw7swyULDvqq88apBRO8GdylXL32x/sYDviTDg+JrybkLQwa8IZPg
z0RpTpYKwaOPeag49bibeO68fP1t/pSw0VthlnUCvRGD89nAv8L94/YVqn4=
-----END CERTIFICATE-----
